target datalayout = "e-m:e-p270:32:32-p271:32:32-p272:64:64-i64:64-i128:128-f80:128-n8:16:32:64-S128"
target triple = "x86_64-pc-linux-gnu"

%"struct.cv::utils::trace::details::Region::LocationStaticStorage" = type { ptr, ptr, ptr, i32, i32 }
%"class.cv::utils::trace::details::Region" = type <{ ptr, i32, [4 x i8] }>
%"class.cv::Rect_" = type { i32, i32, i32, i32 }
%"class.std::__cxx11::basic_string" = type { %"struct.std::__cxx11::basic_string<char>::_Alloc_hider", i64, %union.anon }
%"struct.std::__cxx11::basic_string<char>::_Alloc_hider" = type { ptr }
%union.anon = type { i64, [8 x i8] }
%"class.std::allocator.18" = type { i8 }
%"class.cv::FilterEngine" = type { ptr, i32, i32, i32, %"class.cv::Size_", %"class.cv::Point_", i32, %"class.cv::Size_", %"class.cv::Rect_", i32, i32, i32, i32, %"class.std::vector", i32, %"class.std::vector.0", %"class.std::vector.0", %"class.std::vector.0", %"class.std::vector.0", i32, i32, i32, i32, i32, i32, %"class.std::vector.5", %"struct.cv::Ptr", %"struct.cv::Ptr.10", %"struct.cv::Ptr.14" }
%"class.cv::Point_" = type { i32, i32 }
%"class.cv::Size_" = type { i32, i32 }
%"class.std::vector" = type { %"struct.std::_Vector_base" }
%"struct.std::_Vector_base" = type { %"struct.std::_Vector_base<int, std::allocator<int>>::_Vector_impl" }
%"struct.std::_Vector_base<int, std::allocator<int>>::_Vector_impl" = type { %"struct.std::_Vector_base<int, std::allocator<int>>::_Vector_impl_data" }
%"struct.std::_Vector_base<int, std::allocator<int>>::_Vector_impl_data" = type { ptr, ptr, ptr }
%"class.std::vector.0" = type { %"struct.std::_Vector_base.1" }
%"struct.std::_Vector_base.1" = type { %"struct.std::_Vector_base<unsigned char, std::allocator<unsigned char>>::_Vector_impl" }
%"struct.std::_Vector_base<unsigned char, std::allocator<unsigned char>>::_Vector_impl" = type { %"struct.std::_Vector_base<unsigned char, std::allocator<unsigned char>>::_Vector_impl_data" }
%"struct.std::_Vector_base<unsigned char, std::allocator<unsigned char>>::_Vector_impl_data" = type { ptr, ptr, ptr }
%"class.std::vector.5" = type { %"struct.std::_Vector_base.6" }
%"struct.std::_Vector_base.6" = type { %"struct.std::_Vector_base<unsigned char *, std::allocator<unsigned char *>>::_Vector_impl" }
%"struct.std::_Vector_base<unsigned char *, std::allocator<unsigned char *>>::_Vector_impl" = type { %"struct.std::_Vector_base<unsigned char *, std::allocator<unsigned char *>>::_Vector_impl_data" }
%"struct.std::_Vector_base<unsigned char *, std::allocator<unsigned char *>>::_Vector_impl_data" = type { ptr, ptr, ptr }
%"struct.cv::Ptr" = type { %"class.std::shared_ptr" }
%"class.std::shared_ptr" = type { %"class.std::__shared_ptr" }
%"class.std::__shared_ptr" = type { ptr, %"class.std::__shared_count" }
%"class.std::__shared_count" = type { ptr }
%"struct.cv::Ptr.10" = type { %"class.std::shared_ptr.11" }
%"class.std::shared_ptr.11" = type { %"class.std::__shared_ptr.12" }
%"class.std::__shared_ptr.12" = type { ptr, %"class.std::__shared_count" }
%"struct.cv::Ptr.14" = type { %"class.std::shared_ptr.15" }
%"class.std::shared_ptr.15" = type { %"class.std::__shared_ptr.16" }
%"class.std::__shared_ptr.16" = type { ptr, %"class.std::__shared_count" }

@.str.19 = private unnamed_addr constant [131 x i8] c"generated/home/dtcxzyw/WorkSpace/Projects/compilers/llvm-opt-benchmark/bench/opencv/opencv/modules/imgproc/src/filter.dispatch.cpp\00", align 1
@_ZZN2cv12FilterEngine7proceedEPKhiiPhiE25__cv_trace_location_fn202 = internal constant %"struct.cv::utils::trace::details::Region::LocationStaticStorage" { ptr @_ZZN2cv12FilterEngine7proceedEPKhiiPhiE31__cv_trace_location_extra_fn202, ptr @.str.29, ptr @.str.19, i32 202, i32 1 }, align 8
@.str.30 = private unnamed_addr constant [44 x i8] c"wholeSize.width > 0 && wholeSize.height > 0\00", align 1
@__func__._ZN2cv12FilterEngine7proceedEPKhiiPhi = private unnamed_addr constant [8 x i8] c"proceed\00", align 1

; Function Attrs: mustprogress uwtable
define hidden noundef i32 @_ZN2cv12FilterEngine7proceedEPKhiiPhi(ptr noundef nonnull align 8 dereferenceable(304) %0, ptr noundef %1, i32 noundef %2, i32 noundef %3, ptr noundef %4, i32 noundef %5) unnamed_addr #4 align 2 personality ptr @__gxx_personality_v0 {
  %7 = alloca ptr, align 8
  %8 = alloca ptr, align 8
  %9 = alloca i32, align 4
  %10 = alloca i32, align 4
  %11 = alloca ptr, align 8
  %12 = alloca i32, align 4
  %13 = alloca %"class.cv::utils::trace::details::Region", align 8
  %14 = alloca %"class.std::__cxx11::basic_string", align 8
  %15 = alloca %"class.std::allocator.18", align 1
  %16 = alloca ptr, align 8
  %17 = alloca i32, align 4
  store ptr %0, ptr %7, align 8
  store ptr %1, ptr %8, align 8
  store i32 %2, ptr %9, align 4
  store i32 %3, ptr %10, align 4
  store ptr %4, ptr %11, align 8
  store i32 %5, ptr %12, align 4
  %18 = load ptr, ptr %7, align 8
  call void @_ZN2cv5utils5trace7details6RegionC1ERKNS3_21LocationStaticStorageE(ptr noundef nonnull align 8 dereferenceable(12) %13, ptr noundef nonnull align 8 dereferenceable(32) @_ZZN2cv12FilterEngine7proceedEPKhiiPhiE25__cv_trace_location_fn202)
  br label %19

19:                                               ; preds = %6
  %20 = getelementptr inbounds %"class.cv::FilterEngine", ptr %18, i32 0, i32 7
  %21 = getelementptr inbounds %"class.cv::Size_", ptr %20, i32 0, i32 0
  %22 = load i32, ptr %21, align 8
  %23 = icmp sgt i32 %22, 0
  br i1 %23, label %24, label %30

24:                                               ; preds = %19
  %25 = getelementptr inbounds %"class.cv::FilterEngine", ptr %18, i32 0, i32 7
  %26 = getelementptr inbounds %"class.cv::Size_", ptr %25, i32 0, i32 1
  %27 = load i32, ptr %26, align 4
  %28 = icmp sgt i32 %27, 0
  br i1 %28, label %29, label %30

29:                                               ; preds = %24
  br label %42

30:                                               ; preds = %24, %19
  call void @_ZNSaIcEC1Ev(ptr noundef nonnull align 1 dereferenceable(1) %15) #3
  invoke void @_ZNSt7__cxx1112basic_stringIcSt11char_traitsIcESaIcEEC1EPKcRKS3_(ptr noundef nonnull align 8 dereferenceable(32) %14, ptr noundef @.str.30, ptr noundef nonnull align 1 dereferenceable(1) %15)
          to label %31 unwind label %33

31:                                               ; preds = %30
  invoke void @_ZN2cv5errorEiRKNSt7__cxx1112basic_stringIcSt11char_traitsIcESaIcEEEPKcS9_i(i32 noundef -215, ptr noundef nonnull align 8 dereferenceable(32) %14, ptr noundef @__func__._ZN2cv12FilterEngine7proceedEPKhiiPhi, ptr noundef @.str.19, i32 noundef 204) #16
          to label %32 unwind label %37

32:                                               ; preds = %31
  unreachable

33:                                               ; preds = %30
  %34 = landingpad { ptr, i32 }
          cleanup
  %35 = extractvalue { ptr, i32 } %34, 0
  store ptr %35, ptr %16, align 8
  %36 = extractvalue { ptr, i32 } %34, 1
  store i32 %36, ptr %17, align 4
  br label %41

37:                                               ; preds = %31
  %38 = landingpad { ptr, i32 }
          cleanup
  %39 = extractvalue { ptr, i32 } %38, 0
  store ptr %39, ptr %16, align 8
  %40 = extractvalue { ptr, i32 } %38, 1
  store i32 %40, ptr %17, align 4
  call void @_ZNSt7__cxx1112basic_stringIcSt11char_traitsIcESaIcEED1Ev(ptr noundef nonnull align 8 dereferenceable(32) %14) #3
  br label %41

41:                                               ; preds = %37, %33
  call void @_ZNSaIcED1Ev(ptr noundef nonnull align 1 dereferenceable(1) %15) #3
  br label %56

42:                                               ; preds = %29
  br label %43

43:                                               ; preds = %42
  br label %44

44:                                               ; preds = %43
  %45 = load ptr, ptr %8, align 8
  %46 = load i32, ptr %9, align 4
  %47 = load i32, ptr %10, align 4
  %48 = load ptr, ptr %11, align 8
  %49 = load i32, ptr %12, align 4
  %50 = invoke noundef i32 @_ZN2cv12cpu_baseline21FilterEngine__proceedERNS_12FilterEngineEPKhiiPhi(ptr noundef nonnull align 8 dereferenceable(304) %18, ptr noundef %45, i32 noundef %46, i32 noundef %47, ptr noundef %48, i32 noundef %49)
          to label %51 unwind label %52

51:                                               ; preds = %44
  call void @_ZN2cv5utils5trace7details6RegionD2Ev(ptr noundef nonnull align 8 dereferenceable(12) %13) #3
  ret i32 %50

52:                                               ; preds = %44
  %53 = landingpad { ptr, i32 }
          cleanup
  %54 = extractvalue { ptr, i32 } %53, 0
  store ptr %54, ptr %16, align 8
  %55 = extractvalue { ptr, i32 } %53, 1
  store i32 %55, ptr %17, align 4
  br label %56

56:                                               ; preds = %52, %41
  call void @_ZN2cv5utils5trace7details6RegionD2Ev(ptr noundef nonnull align 8 dereferenceable(12) %13) #3
  br label %57

57:                                               ; preds = %56
  %58 = load ptr, ptr %16, align 8
  %59 = load i32, ptr %17, align 4
  %60 = insertvalue { ptr, i32 } poison, ptr %58, 0
  %61 = insertvalue { ptr, i32 } %60, i32 %59, 1
  resume { ptr, i32 } %61
}