; Function Attrs: mustprogress uwtable
define hidden noundef i32 @_ZN2cv12FilterEngine7proceedEPKhiiPhi(ptr nocapture noundef nonnull align 8 dereferenceable(304) %0, ptr noundef %1, i32 noundef %2, i32 noundef %3, ptr noundef %4, i32 noundef %5) unnamed_addr #3 align 2 personality ptr @__gxx_personality_v0 {
  %7 = alloca %"class.cv::utils::trace::details::Region", align 8
  %8 = alloca %"class.std::__cxx11::basic_string", align 8
  %9 = alloca %"class.std::allocator.18", align 1
  call void @_ZN2cv5utils5trace7details6RegionC1ERKNS3_21LocationStaticStorageE(ptr noundef nonnull align 8 dereferenceable(12) %7, ptr noundef nonnull align 8 dereferenceable(32) @_ZZN2cv12FilterEngine7proceedEPKhiiPhiE25__cv_trace_location_fn202)
  %10 = getelementptr inbounds i8, ptr %0, i64 40
  %11 = load i32, ptr %10, align 8
  %12 = icmp sgt i32 %11, 0
  %13 = getelementptr inbounds i8, ptr %0, i64 44
  %14 = load i32, ptr %13, align 4
  %15 = icmp sgt i32 %14, 0
  %or.cond = select i1 %12, i1 %15, i1 false
  br i1 %or.cond, label %24, label %16

16:                                               ; preds = %6
  call void @_ZNSaIcEC1Ev(ptr noundef nonnull align 1 dereferenceable(1) %9) #25
  invoke void @_ZNSt7__cxx1112basic_stringIcSt11char_traitsIcESaIcEEC1EPKcRKS3_(ptr noundef nonnull align 8 dereferenceable(32) %8, ptr noundef nonnull @.str.30, ptr noundef nonnull align 1 dereferenceable(1) %9)
          to label %17 unwind label %19

17:                                               ; preds = %16
  invoke void @_ZN2cv5errorEiRKNSt7__cxx1112basic_stringIcSt11char_traitsIcESaIcEEEPKcS9_i(i32 noundef -215, ptr noundef nonnull align 8 dereferenceable(32) %8, ptr noundef nonnull @__func__._ZN2cv12FilterEngine7proceedEPKhiiPhi, ptr noundef nonnull @.str.19, i32 noundef 204) #26
          to label %18 unwind label %21

18:                                               ; preds = %17
  unreachable

19:                                               ; preds = %16
  %20 = landingpad { ptr, i32 }
          cleanup
  br label %23

21:                                               ; preds = %17
  %22 = landingpad { ptr, i32 }
          cleanup
  call void @_ZNSt7__cxx1112basic_stringIcSt11char_traitsIcESaIcEED1Ev(ptr noundef nonnull align 8 dereferenceable(32) %8) #25
  br label %23

23:                                               ; preds = %21, %19
  %.pn = phi { ptr, i32 } [ %22, %21 ], [ %20, %19 ]
  call void @_ZNSaIcED1Ev(ptr noundef nonnull align 1 dereferenceable(1) %9) #25
  br label %35

24:                                               ; preds = %6
  %25 = invoke noundef i32 @_ZN2cv12cpu_baseline21FilterEngine__proceedERNS_12FilterEngineEPKhiiPhi(ptr noundef nonnull align 8 dereferenceable(304) %0, ptr noundef %1, i32 noundef %2, i32 noundef %3, ptr noundef %4, i32 noundef %5)
          to label %26 unwind label %33

26:                                               ; preds = %24
  %27 = getelementptr inbounds i8, ptr %7, i64 8
  %28 = load i32, ptr %27, align 8
  %.not.i = icmp eq i32 %28, 0
  br i1 %.not.i, label %_ZN2cv5utils5trace7details6RegionD2Ev.exit, label %29

29:                                               ; preds = %26
  invoke void @_ZN2cv5utils5trace7details6Region7destroyEv(ptr noundef nonnull align 8 dereferenceable(12) %7)
          to label %_ZN2cv5utils5trace7details6RegionD2Ev.exit unwind label %30

30:                                               ; preds = %29
  %31 = landingpad { ptr, i32 }
          catch ptr null
  %32 = extractvalue { ptr, i32 } %31, 0
  call void @__clang_call_terminate(ptr %32) #27
  unreachable

_ZN2cv5utils5trace7details6RegionD2Ev.exit:       ; preds = %26, %29
  ret i32 %25

33:                                               ; preds = %24
  %34 = landingpad { ptr, i32 }
          cleanup
  br label %35

35:                                               ; preds = %33, %23
  %.pn10 = phi { ptr, i32 } [ %34, %33 ], [ %.pn, %23 ]
  call void @_ZN2cv5utils5trace7details6RegionD2Ev(ptr noundef nonnull align 8 dereferenceable(12) %7) #25
  resume { ptr, i32 } %.pn10
}